target datalayout = "e-m:e-p270:32:32-p271:32:32-p272:64:64-i64:64-i128:128-f80:128-n8:16:32:64-S128"
target triple = "x86_64-pc-linux-gnu"

%struct.FunctionCallInfoBaseData = type { ptr, ptr, ptr, i32, i8, i16, [0 x %struct.NullableDatum] }
%struct.NullableDatum = type { i64, i8 }
%struct.lconv = type { ptr, ptr, ptr, ptr, ptr, ptr, ptr, ptr, ptr, ptr, i8, i8, i8, i8, i8, i8, i8, i8, i8, i8, i8, i8, i8, i8 }

; Function Attrs: inlinehint nounwind uwtable
define internal i64 @CashGetDatum(i64 noundef %0) #2 {
  %2 = alloca i64, align 8
  store i64 %0, ptr %2, align 8
  %3 = load i64, ptr %2, align 8
  %4 = call i64 @Int64GetDatum(i64 noundef %3)
  ret i64 %4
}

; Function Attrs: inlinehint nounwind uwtable
define internal i64 @Int64GetDatum(i64 noundef %0) #2 {
  %2 = alloca i64, align 8
  store i64 %0, ptr %2, align 8
  %3 = load i64, ptr %2, align 8
  ret i64 %3
}

; Function Attrs: inlinehint nounwind uwtable
define internal i64 @DatumGetInt64(i64 noundef %0) #2 {
  %2 = alloca i64, align 8
  store i64 %0, ptr %2, align 8
  %3 = load i64, ptr %2, align 8
  ret i64 %3
}

; Function Attrs: nounwind uwtable
define dso_local i64 @int8_cash(ptr noundef %0) #0 {
  %2 = alloca ptr, align 8
  %3 = alloca i64, align 8
  %4 = alloca i64, align 8
  %5 = alloca i32, align 4
  %6 = alloca i64, align 8
  %7 = alloca i32, align 4
  %8 = alloca ptr, align 8
  store ptr %0, ptr %2, align 8
  call void @llvm.lifetime.start.p0(i64 8, ptr %3) #11
  %9 = load ptr, ptr %2, align 8
  %10 = getelementptr inbounds nuw %struct.FunctionCallInfoBaseData, ptr %9, i32 0, i32 6
  %11 = getelementptr inbounds [0 x %struct.NullableDatum], ptr %10, i64 0, i64 0
  %12 = getelementptr inbounds nuw %struct.NullableDatum, ptr %11, i32 0, i32 0
  %13 = load i64, ptr %12, align 8
  %14 = call i64 @DatumGetInt64(i64 noundef %13)
  store i64 %14, ptr %3, align 8
  call void @llvm.lifetime.start.p0(i64 8, ptr %4) #11
  call void @llvm.lifetime.start.p0(i64 4, ptr %5) #11
  call void @llvm.lifetime.start.p0(i64 8, ptr %6) #11
  call void @llvm.lifetime.start.p0(i64 4, ptr %7) #11
  call void @llvm.lifetime.start.p0(i64 8, ptr %8) #11
  %15 = call ptr @PGLC_localeconv()
  store ptr %15, ptr %8, align 8
  %16 = load ptr, ptr %8, align 8
  %17 = getelementptr inbounds nuw %struct.lconv, ptr %16, i32 0, i32 11
  %18 = load i8, ptr %17, align 1
  %19 = sext i8 %18 to i32
  store i32 %19, ptr %5, align 4
  %20 = load i32, ptr %5, align 4
  %21 = icmp slt i32 %20, 0
  br i1 %21, label %25, label %22

22:                                               ; preds = %1
  %23 = load i32, ptr %5, align 4
  %24 = icmp sgt i32 %23, 10
  br i1 %24, label %25, label %26

25:                                               ; preds = %22, %1
  store i32 2, ptr %5, align 4
  br label %26

26:                                               ; preds = %25, %22
  store i64 1, ptr %6, align 8
  store i32 0, ptr %7, align 4
  br label %27

27:                                               ; preds = %34, %26
  %28 = load i32, ptr %7, align 4
  %29 = load i32, ptr %5, align 4
  %30 = icmp slt i32 %28, %29
  br i1 %30, label %31, label %37

31:                                               ; preds = %27
  %32 = load i64, ptr %6, align 8
  %33 = mul i64 %32, 10
  store i64 %33, ptr %6, align 8
  br label %34

34:                                               ; preds = %31
  %35 = load i32, ptr %7, align 4
  %36 = add i32 %35, 1
  store i32 %36, ptr %7, align 4
  br label %27, !llvm.loop !19

37:                                               ; preds = %27
  %38 = load i64, ptr %3, align 8
  %39 = call i64 @Int64GetDatum(i64 noundef %38)
  %40 = load i64, ptr %6, align 8
  %41 = call i64 @Int64GetDatum(i64 noundef %40)
  %42 = call i64 @DirectFunctionCall2Coll(ptr noundef @int8mul, i32 noundef 0, i64 noundef %39, i64 noundef %41)
  %43 = call i64 @DatumGetInt64(i64 noundef %42)
  store i64 %43, ptr %4, align 8
  %44 = load i64, ptr %4, align 8
  %45 = call i64 @CashGetDatum(i64 noundef %44)
  call void @llvm.lifetime.end.p0(i64 8, ptr %8) #11
  call void @llvm.lifetime.end.p0(i64 4, ptr %7) #11
  call void @llvm.lifetime.end.p0(i64 8, ptr %6) #11
  call void @llvm.lifetime.end.p0(i64 4, ptr %5) #11
  call void @llvm.lifetime.end.p0(i64 8, ptr %4) #11
  call void @llvm.lifetime.end.p0(i64 8, ptr %3) #11
  ret i64 %45
}